; Function Attrs: nounwind uwtable
define internal range(i32 0, 2) i32 @dsa_pub_cmp(ptr noundef readonly captures(none) %0, ptr noundef readonly captures(none) %1) #0 {
  %3 = getelementptr inbounds nuw i8, ptr %1, i64 32
  %4 = load ptr, ptr %3, align 8, !tbaa !29
  %5 = getelementptr inbounds nuw i8, ptr %4, i64 104
  %6 = load ptr, ptr %5, align 8, !tbaa !17
  %7 = getelementptr inbounds nuw i8, ptr %0, i64 32
  %8 = load ptr, ptr %7, align 8, !tbaa !29
  %9 = getelementptr inbounds nuw i8, ptr %8, i64 104
  %10 = load ptr, ptr %9, align 8, !tbaa !17
  %11 = tail call i32 @BN_cmp(ptr noundef %6, ptr noundef %10) #5
  %12 = icmp eq i32 %11, 0
  %13 = zext i1 %12 to i32
  ret i32 %13
}